target datalayout = "e-m:e-p270:32:32-p271:32:32-p272:64:64-i64:64-i128:128-f80:128-n8:16:32:64-S128"
target triple = "x86_64-pc-linux-gnu"

%struct.SN_env = type { ptr, i32, i32, i32, i32, i32, ptr, ptr }

@s_76 = internal constant [8 x i8] c"\CE\B1\CE\B3\CE\B1\CE\BD", align 1
@s_77 = internal constant [6 x i8] c"\CE\B1\CE\BD\CE\B5", align 1
@g_v2 = internal constant [4 x i8] c"QA\00\01", align 1
@s_78 = internal constant [4 x i8] c"\CE\B1\CE\BD", align 1
@s_79 = internal constant [4 x i8] c"\CE\B1\CE\BD", align 1

; Function Attrs: nounwind uwtable
define internal i32 @r_step5b(ptr noundef %0) #0 {
  %2 = alloca i32, align 4
  %3 = alloca ptr, align 8
  %4 = alloca i32, align 4
  %5 = alloca i32, align 4
  %6 = alloca i32, align 4
  %7 = alloca i32, align 4
  %8 = alloca i32, align 4
  %9 = alloca i32, align 4
  %10 = alloca i32, align 4
  %11 = alloca i32, align 4
  store ptr %0, ptr %3, align 8
  call void @llvm.lifetime.start.p0(i64 4, ptr %4) #3
  %12 = load ptr, ptr %3, align 8
  %13 = getelementptr inbounds nuw %struct.SN_env, ptr %12, i32 0, i32 2
  %14 = load i32, ptr %13, align 4
  %15 = load ptr, ptr %3, align 8
  %16 = getelementptr inbounds nuw %struct.SN_env, ptr %15, i32 0, i32 1
  %17 = load i32, ptr %16, align 8
  %18 = sub i32 %14, %17
  store i32 %18, ptr %4, align 4
  %19 = load ptr, ptr %3, align 8
  %20 = getelementptr inbounds nuw %struct.SN_env, ptr %19, i32 0, i32 1
  %21 = load i32, ptr %20, align 8
  %22 = load ptr, ptr %3, align 8
  %23 = getelementptr inbounds nuw %struct.SN_env, ptr %22, i32 0, i32 5
  store i32 %21, ptr %23, align 8
  %24 = load ptr, ptr %3, align 8
  %25 = getelementptr inbounds nuw %struct.SN_env, ptr %24, i32 0, i32 1
  %26 = load i32, ptr %25, align 8
  %27 = sub i32 %26, 9
  %28 = load ptr, ptr %3, align 8
  %29 = getelementptr inbounds nuw %struct.SN_env, ptr %28, i32 0, i32 3
  %30 = load i32, ptr %29, align 8
  %31 = icmp sle i32 %27, %30
  br i1 %31, label %45, label %32

32:                                               ; preds = %1
  %33 = load ptr, ptr %3, align 8
  %34 = getelementptr inbounds nuw %struct.SN_env, ptr %33, i32 0, i32 0
  %35 = load ptr, ptr %34, align 8
  %36 = load ptr, ptr %3, align 8
  %37 = getelementptr inbounds nuw %struct.SN_env, ptr %36, i32 0, i32 1
  %38 = load i32, ptr %37, align 8
  %39 = sub i32 %38, 1
  %40 = sext i32 %39 to i64
  %41 = getelementptr inbounds i8, ptr %35, i64 %40
  %42 = load i8, ptr %41, align 1
  %43 = zext i8 %42 to i32
  %44 = icmp ne i32 %43, 181
  br i1 %44, label %45, label %46

45:                                               ; preds = %32, %1
  br label %141

46:                                               ; preds = %32
  %47 = load ptr, ptr %3, align 8
  %48 = call i32 @find_among_b(ptr noundef %47, ptr noundef @a_38, i32 noundef 11)
  %49 = icmp ne i32 %48, 0
  br i1 %49, label %51, label %50

50:                                               ; preds = %46
  br label %141

51:                                               ; preds = %46
  %52 = load ptr, ptr %3, align 8
  %53 = getelementptr inbounds nuw %struct.SN_env, ptr %52, i32 0, i32 1
  %54 = load i32, ptr %53, align 8
  %55 = load ptr, ptr %3, align 8
  %56 = getelementptr inbounds nuw %struct.SN_env, ptr %55, i32 0, i32 4
  store i32 %54, ptr %56, align 4
  call void @llvm.lifetime.start.p0(i64 4, ptr %5) #3
  %57 = load ptr, ptr %3, align 8
  %58 = call i32 @slice_del(ptr noundef %57)
  store i32 %58, ptr %5, align 4
  %59 = load i32, ptr %5, align 4
  %60 = icmp slt i32 %59, 0
  br i1 %60, label %61, label %63

61:                                               ; preds = %51
  %62 = load i32, ptr %5, align 4
  store i32 %62, ptr %2, align 4
  store i32 1, ptr %6, align 4
  br label %64

63:                                               ; preds = %51
  store i32 0, ptr %6, align 4
  br label %64

64:                                               ; preds = %63, %61
  call void @llvm.lifetime.end.p0(i64 4, ptr %5) #3
  %65 = load i32, ptr %6, align 4
  switch i32 %65, label %149 [
    i32 0, label %66
  ]

66:                                               ; preds = %64
  %67 = load ptr, ptr %3, align 8
  %68 = getelementptr inbounds nuw %struct.SN_env, ptr %67, i32 0, i32 7
  %69 = load ptr, ptr %68, align 8
  %70 = getelementptr inbounds i32, ptr %69, i64 0
  store i32 0, ptr %70, align 4
  %71 = load ptr, ptr %3, align 8
  %72 = getelementptr inbounds nuw %struct.SN_env, ptr %71, i32 0, i32 1
  %73 = load i32, ptr %72, align 8
  %74 = load ptr, ptr %3, align 8
  %75 = getelementptr inbounds nuw %struct.SN_env, ptr %74, i32 0, i32 5
  store i32 %73, ptr %75, align 8
  %76 = load ptr, ptr %3, align 8
  %77 = getelementptr inbounds nuw %struct.SN_env, ptr %76, i32 0, i32 1
  %78 = load i32, ptr %77, align 8
  %79 = load ptr, ptr %3, align 8
  %80 = getelementptr inbounds nuw %struct.SN_env, ptr %79, i32 0, i32 4
  store i32 %78, ptr %80, align 4
  %81 = load ptr, ptr %3, align 8
  %82 = getelementptr inbounds nuw %struct.SN_env, ptr %81, i32 0, i32 1
  %83 = load i32, ptr %82, align 8
  %84 = sub i32 %83, 3
  %85 = load ptr, ptr %3, align 8
  %86 = getelementptr inbounds nuw %struct.SN_env, ptr %85, i32 0, i32 3
  %87 = load i32, ptr %86, align 8
  %88 = icmp sle i32 %84, %87
  br i1 %88, label %115, label %89

89:                                               ; preds = %66
  %90 = load ptr, ptr %3, align 8
  %91 = getelementptr inbounds nuw %struct.SN_env, ptr %90, i32 0, i32 0
  %92 = load ptr, ptr %91, align 8
  %93 = load ptr, ptr %3, align 8
  %94 = getelementptr inbounds nuw %struct.SN_env, ptr %93, i32 0, i32 1
  %95 = load i32, ptr %94, align 8
  %96 = sub i32 %95, 1
  %97 = sext i32 %96 to i64
  %98 = getelementptr inbounds i8, ptr %92, i64 %97
  %99 = load i8, ptr %98, align 1
  %100 = zext i8 %99 to i32
  %101 = icmp ne i32 %100, 129
  br i1 %101, label %102, label %116

102:                                              ; preds = %89
  %103 = load ptr, ptr %3, align 8
  %104 = getelementptr inbounds nuw %struct.SN_env, ptr %103, i32 0, i32 0
  %105 = load ptr, ptr %104, align 8
  %106 = load ptr, ptr %3, align 8
  %107 = getelementptr inbounds nuw %struct.SN_env, ptr %106, i32 0, i32 1
  %108 = load i32, ptr %107, align 8
  %109 = sub i32 %108, 1
  %110 = sext i32 %109 to i64
  %111 = getelementptr inbounds i8, ptr %105, i64 %110
  %112 = load i8, ptr %111, align 1
  %113 = zext i8 %112 to i32
  %114 = icmp ne i32 %113, 131
  br i1 %114, label %115, label %116

115:                                              ; preds = %102, %66
  br label %141

116:                                              ; preds = %102, %89
  %117 = load ptr, ptr %3, align 8
  %118 = call i32 @find_among_b(ptr noundef %117, ptr noundef @a_37, i32 noundef 2)
  %119 = icmp ne i32 %118, 0
  br i1 %119, label %121, label %120

120:                                              ; preds = %116
  br label %141

121:                                              ; preds = %116
  %122 = load ptr, ptr %3, align 8
  %123 = getelementptr inbounds nuw %struct.SN_env, ptr %122, i32 0, i32 1
  %124 = load i32, ptr %123, align 8
  %125 = load ptr, ptr %3, align 8
  %126 = getelementptr inbounds nuw %struct.SN_env, ptr %125, i32 0, i32 3
  %127 = load i32, ptr %126, align 8
  %128 = icmp sgt i32 %124, %127
  br i1 %128, label %129, label %130

129:                                              ; preds = %121
  br label %141

130:                                              ; preds = %121
  call void @llvm.lifetime.start.p0(i64 4, ptr %7) #3
  %131 = load ptr, ptr %3, align 8
  %132 = call i32 @slice_from_s(ptr noundef %131, i32 noundef 8, ptr noundef @s_76)
  store i32 %132, ptr %7, align 4
  %133 = load i32, ptr %7, align 4
  %134 = icmp slt i32 %133, 0
  br i1 %134, label %135, label %137

135:                                              ; preds = %130
  %136 = load i32, ptr %7, align 4
  store i32 %136, ptr %2, align 4
  store i32 1, ptr %6, align 4
  br label %138

137:                                              ; preds = %130
  store i32 0, ptr %6, align 4
  br label %138

138:                                              ; preds = %137, %135
  call void @llvm.lifetime.end.p0(i64 4, ptr %7) #3
  %139 = load i32, ptr %6, align 4
  switch i32 %139, label %149 [
    i32 0, label %140
  ]

140:                                              ; preds = %138
  br label %141

141:                                              ; preds = %140, %129, %120, %115, %50, %45
  %142 = load ptr, ptr %3, align 8
  %143 = getelementptr inbounds nuw %struct.SN_env, ptr %142, i32 0, i32 2
  %144 = load i32, ptr %143, align 4
  %145 = load i32, ptr %4, align 4
  %146 = sub i32 %144, %145
  %147 = load ptr, ptr %3, align 8
  %148 = getelementptr inbounds nuw %struct.SN_env, ptr %147, i32 0, i32 1
  store i32 %146, ptr %148, align 8
  store i32 0, ptr %6, align 4
  br label %149

149:                                              ; preds = %141, %138, %64
  call void @llvm.lifetime.end.p0(i64 4, ptr %4) #3
  %150 = load i32, ptr %6, align 4
  switch i32 %150, label %261 [
    i32 0, label %151
    i32 1, label %259
  ]

151:                                              ; preds = %149
  %152 = load ptr, ptr %3, align 8
  %153 = getelementptr inbounds nuw %struct.SN_env, ptr %152, i32 0, i32 1
  %154 = load i32, ptr %153, align 8
  %155 = load ptr, ptr %3, align 8
  %156 = getelementptr inbounds nuw %struct.SN_env, ptr %155, i32 0, i32 5
  store i32 %154, ptr %156, align 8
  %157 = load ptr, ptr %3, align 8
  %158 = call i32 @eq_s_b(ptr noundef %157, i32 noundef 6, ptr noundef @s_77)
  %159 = icmp ne i32 %158, 0
  br i1 %159, label %161, label %160

160:                                              ; preds = %151
  store i32 0, ptr %2, align 4
  br label %259

161:                                              ; preds = %151
  %162 = load ptr, ptr %3, align 8
  %163 = getelementptr inbounds nuw %struct.SN_env, ptr %162, i32 0, i32 1
  %164 = load i32, ptr %163, align 8
  %165 = load ptr, ptr %3, align 8
  %166 = getelementptr inbounds nuw %struct.SN_env, ptr %165, i32 0, i32 4
  store i32 %164, ptr %166, align 4
  call void @llvm.lifetime.start.p0(i64 4, ptr %8) #3
  %167 = load ptr, ptr %3, align 8
  %168 = call i32 @slice_del(ptr noundef %167)
  store i32 %168, ptr %8, align 4
  %169 = load i32, ptr %8, align 4
  %170 = icmp slt i32 %169, 0
  br i1 %170, label %171, label %173

171:                                              ; preds = %161
  %172 = load i32, ptr %8, align 4
  store i32 %172, ptr %2, align 4
  store i32 1, ptr %6, align 4
  br label %174

173:                                              ; preds = %161
  store i32 0, ptr %6, align 4
  br label %174

174:                                              ; preds = %173, %171
  call void @llvm.lifetime.end.p0(i64 4, ptr %8) #3
  %175 = load i32, ptr %6, align 4
  switch i32 %175, label %261 [
    i32 0, label %176
    i32 1, label %259
  ]

176:                                              ; preds = %174
  %177 = load ptr, ptr %3, align 8
  %178 = getelementptr inbounds nuw %struct.SN_env, ptr %177, i32 0, i32 7
  %179 = load ptr, ptr %178, align 8
  %180 = getelementptr inbounds i32, ptr %179, i64 0
  store i32 0, ptr %180, align 4
  call void @llvm.lifetime.start.p0(i64 4, ptr %9) #3
  %181 = load ptr, ptr %3, align 8
  %182 = getelementptr inbounds nuw %struct.SN_env, ptr %181, i32 0, i32 2
  %183 = load i32, ptr %182, align 4
  %184 = load ptr, ptr %3, align 8
  %185 = getelementptr inbounds nuw %struct.SN_env, ptr %184, i32 0, i32 1
  %186 = load i32, ptr %185, align 8
  %187 = sub i32 %183, %186
  store i32 %187, ptr %9, align 4
  %188 = load ptr, ptr %3, align 8
  %189 = getelementptr inbounds nuw %struct.SN_env, ptr %188, i32 0, i32 1
  %190 = load i32, ptr %189, align 8
  %191 = load ptr, ptr %3, align 8
  %192 = getelementptr inbounds nuw %struct.SN_env, ptr %191, i32 0, i32 5
  store i32 %190, ptr %192, align 8
  %193 = load ptr, ptr %3, align 8
  %194 = getelementptr inbounds nuw %struct.SN_env, ptr %193, i32 0, i32 1
  %195 = load i32, ptr %194, align 8
  %196 = load ptr, ptr %3, align 8
  %197 = getelementptr inbounds nuw %struct.SN_env, ptr %196, i32 0, i32 4
  store i32 %195, ptr %197, align 4
  %198 = load ptr, ptr %3, align 8
  %199 = call i32 @in_grouping_b_U(ptr noundef %198, ptr noundef @g_v2, i32 noundef 945, i32 noundef 969, i32 noundef 0)
  %200 = icmp ne i32 %199, 0
  br i1 %200, label %201, label %202

201:                                              ; preds = %176
  br label %213

202:                                              ; preds = %176
  call void @llvm.lifetime.start.p0(i64 4, ptr %10) #3
  %203 = load ptr, ptr %3, align 8
  %204 = call i32 @slice_from_s(ptr noundef %203, i32 noundef 4, ptr noundef @s_78)
  store i32 %204, ptr %10, align 4
  %205 = load i32, ptr %10, align 4
  %206 = icmp slt i32 %205, 0
  br i1 %206, label %207, label %209

207:                                              ; preds = %202
  %208 = load i32, ptr %10, align 4
  store i32 %208, ptr %2, align 4
  store i32 1, ptr %6, align 4
  br label %210

209:                                              ; preds = %202
  store i32 0, ptr %6, align 4
  br label %210

210:                                              ; preds = %209, %207
  call void @llvm.lifetime.end.p0(i64 4, ptr %10) #3
  %211 = load i32, ptr %6, align 4
  switch i32 %211, label %226 [
    i32 0, label %212
  ]

212:                                              ; preds = %210
  store i32 4, ptr %6, align 4
  br label %226

213:                                              ; preds = %201
  %214 = load ptr, ptr %3, align 8
  %215 = getelementptr inbounds nuw %struct.SN_env, ptr %214, i32 0, i32 2
  %216 = load i32, ptr %215, align 4
  %217 = load i32, ptr %9, align 4
  %218 = sub i32 %216, %217
  %219 = load ptr, ptr %3, align 8
  %220 = getelementptr inbounds nuw %struct.SN_env, ptr %219, i32 0, i32 1
  store i32 %218, ptr %220, align 8
  %221 = load ptr, ptr %3, align 8
  %222 = getelementptr inbounds nuw %struct.SN_env, ptr %221, i32 0, i32 1
  %223 = load i32, ptr %222, align 8
  %224 = load ptr, ptr %3, align 8
  %225 = getelementptr inbounds nuw %struct.SN_env, ptr %224, i32 0, i32 5
  store i32 %223, ptr %225, align 8
  store i32 0, ptr %6, align 4
  br label %226

226:                                              ; preds = %212, %213, %210
  call void @llvm.lifetime.end.p0(i64 4, ptr %9) #3
  %227 = load i32, ptr %6, align 4
  switch i32 %227, label %261 [
    i32 0, label %228
    i32 1, label %259
    i32 4, label %229
  ]

228:                                              ; preds = %226
  br label %229

229:                                              ; preds = %228, %226
  %230 = load ptr, ptr %3, align 8
  %231 = getelementptr inbounds nuw %struct.SN_env, ptr %230, i32 0, i32 1
  %232 = load i32, ptr %231, align 8
  %233 = load ptr, ptr %3, align 8
  %234 = getelementptr inbounds nuw %struct.SN_env, ptr %233, i32 0, i32 4
  store i32 %232, ptr %234, align 4
  %235 = load ptr, ptr %3, align 8
  %236 = call i32 @find_among_b(ptr noundef %235, ptr noundef @a_39, i32 noundef 95)
  %237 = icmp ne i32 %236, 0
  br i1 %237, label %239, label %238

238:                                              ; preds = %229
  store i32 0, ptr %2, align 4
  br label %259

239:                                              ; preds = %229
  %240 = load ptr, ptr %3, align 8
  %241 = getelementptr inbounds nuw %struct.SN_env, ptr %240, i32 0, i32 1
  %242 = load i32, ptr %241, align 8
  %243 = load ptr, ptr %3, align 8
  %244 = getelementptr inbounds nuw %struct.SN_env, ptr %243, i32 0, i32 3
  %245 = load i32, ptr %244, align 8
  %246 = icmp sgt i32 %242, %245
  br i1 %246, label %247, label %248

247:                                              ; preds = %239
  store i32 0, ptr %2, align 4
  br label %259

248:                                              ; preds = %239
  call void @llvm.lifetime.start.p0(i64 4, ptr %11) #3
  %249 = load ptr, ptr %3, align 8
  %250 = call i32 @slice_from_s(ptr noundef %249, i32 noundef 4, ptr noundef @s_79)
  store i32 %250, ptr %11, align 4
  %251 = load i32, ptr %11, align 4
  %252 = icmp slt i32 %251, 0
  br i1 %252, label %253, label %255

253:                                              ; preds = %248
  %254 = load i32, ptr %11, align 4
  store i32 %254, ptr %2, align 4
  store i32 1, ptr %6, align 4
  br label %256

255:                                              ; preds = %248
  store i32 0, ptr %6, align 4
  br label %256

256:                                              ; preds = %255, %253
  call void @llvm.lifetime.end.p0(i64 4, ptr %11) #3
  %257 = load i32, ptr %6, align 4
  switch i32 %257, label %261 [
    i32 0, label %258
    i32 1, label %259
  ]

258:                                              ; preds = %256
  store i32 1, ptr %2, align 4
  br label %259

259:                                              ; preds = %258, %256, %247, %238, %226, %174, %160, %149
  %260 = load i32, ptr %2, align 4
  ret i32 %260

261:                                              ; preds = %256, %226, %174, %149
  unreachable
}