; Function Attrs: nounwind uwtable
define internal fastcc i32 @r_step5b(ptr noundef initializes((24, 28)) %0) unnamed_addr #0 {
  %2 = getelementptr inbounds nuw i8, ptr %0, i64 12
  %3 = load i32, ptr %2, align 4
  %4 = getelementptr inbounds nuw i8, ptr %0, i64 8
  %5 = load i32, ptr %4, align 8
  %.neg = sub i32 %5, %3
  %6 = getelementptr inbounds nuw i8, ptr %0, i64 24
  store i32 %5, ptr %6, align 8
  %7 = add i32 %5, -9
  %8 = getelementptr inbounds nuw i8, ptr %0, i64 16
  %9 = load i32, ptr %8, align 8
  %.not = icmp sgt i32 %7, %9
  br i1 %.not, label %10, label %44

10:                                               ; preds = %1
  %11 = load ptr, ptr %0, align 8
  %12 = add i32 %5, -1
  %13 = sext i32 %12 to i64
  %14 = getelementptr inbounds i8, ptr %11, i64 %13
  %15 = load i8, ptr %14, align 1
  %.not87 = icmp eq i8 %15, -75
  br i1 %.not87, label %16, label %44

16:                                               ; preds = %10
  %17 = tail call i32 @find_among_b(ptr noundef nonnull %0, ptr noundef nonnull @a_38, i32 noundef 11) #2
  %.not88 = icmp eq i32 %17, 0
  br i1 %.not88, label %44, label %18

18:                                               ; preds = %16
  %19 = load i32, ptr %4, align 8
  %20 = getelementptr inbounds nuw i8, ptr %0, i64 20
  store i32 %19, ptr %20, align 4
  %21 = tail call i32 @slice_del(ptr noundef nonnull %0) #2
  %22 = icmp sgt i32 %21, -1
  br i1 %22, label %23, label %.thread

23:                                               ; preds = %18
  %24 = getelementptr inbounds nuw i8, ptr %0, i64 40
  %25 = load ptr, ptr %24, align 8
  store i32 0, ptr %25, align 4
  %26 = load i32, ptr %4, align 8
  store i32 %26, ptr %6, align 8
  store i32 %26, ptr %20, align 4
  %27 = add i32 %26, -3
  %28 = load i32, ptr %8, align 8
  %.not89 = icmp sgt i32 %27, %28
  br i1 %.not89, label %29, label %44

29:                                               ; preds = %23
  %30 = load ptr, ptr %0, align 8
  %31 = add i32 %26, -1
  %32 = sext i32 %31 to i64
  %33 = getelementptr inbounds i8, ptr %30, i64 %32
  %34 = load i8, ptr %33, align 1
  switch i8 %34, label %44 [
    i8 -127, label %35
    i8 -125, label %35
  ]

35:                                               ; preds = %29, %29
  %36 = tail call i32 @find_among_b(ptr noundef nonnull %0, ptr noundef nonnull @a_37, i32 noundef 2) #2
  %.not92 = icmp eq i32 %36, 0
  br i1 %.not92, label %44, label %37

37:                                               ; preds = %35
  %38 = load i32, ptr %4, align 8
  %39 = load i32, ptr %8, align 8
  %40 = icmp sgt i32 %38, %39
  br i1 %40, label %44, label %41

41:                                               ; preds = %37
  %42 = tail call i32 @slice_from_s(ptr noundef nonnull %0, i32 noundef 8, ptr noundef nonnull @s_76) #2
  %43 = icmp sgt i32 %42, -1
  br i1 %43, label %44, label %.thread

44:                                               ; preds = %29, %41, %37, %35, %23, %16, %1, %10
  %45 = load i32, ptr %2, align 4
  %46 = add i32 %45, %.neg
  store i32 %46, ptr %4, align 8
  store i32 %46, ptr %6, align 8
  %47 = tail call i32 @eq_s_b(ptr noundef nonnull %0, i32 noundef 6, ptr noundef nonnull @s_77) #2
  %.not93 = icmp eq i32 %47, 0
  br i1 %.not93, label %.thread, label %48

48:                                               ; preds = %44
  %49 = load i32, ptr %4, align 8
  %50 = getelementptr inbounds nuw i8, ptr %0, i64 20
  store i32 %49, ptr %50, align 4
  %51 = tail call i32 @slice_del(ptr noundef nonnull %0) #2
  %52 = icmp sgt i32 %51, -1
  br i1 %52, label %53, label %.thread

53:                                               ; preds = %48
  %54 = getelementptr inbounds nuw i8, ptr %0, i64 40
  %55 = load ptr, ptr %54, align 8
  store i32 0, ptr %55, align 4
  %56 = load i32, ptr %2, align 4
  %57 = load i32, ptr %4, align 8
  store i32 %57, ptr %6, align 8
  store i32 %57, ptr %50, align 4
  %58 = tail call i32 @in_grouping_b_U(ptr noundef nonnull %0, ptr noundef nonnull @g_v2, i32 noundef 945, i32 noundef 969, i32 noundef 0) #2
  %.not94 = icmp eq i32 %58, 0
  br i1 %.not94, label %61, label %.thread106

.thread106:                                       ; preds = %53
  %.neg95 = sub i32 %57, %56
  %59 = load i32, ptr %2, align 4
  %60 = add i32 %59, %.neg95
  store i32 %60, ptr %4, align 8
  store i32 %60, ptr %6, align 8
  br label %64

61:                                               ; preds = %53
  %62 = tail call i32 @slice_from_s(ptr noundef nonnull %0, i32 noundef 4, ptr noundef nonnull @s_78) #2
  %63 = icmp slt i32 %62, 0
  br i1 %63, label %.thread, label %._crit_edge

._crit_edge:                                      ; preds = %61
  %.pre = load i32, ptr %4, align 8
  br label %64

64:                                               ; preds = %._crit_edge, %.thread106
  %65 = phi i32 [ %.pre, %._crit_edge ], [ %60, %.thread106 ]
  store i32 %65, ptr %50, align 4
  %66 = tail call i32 @find_among_b(ptr noundef nonnull %0, ptr noundef nonnull @a_39, i32 noundef 95) #2
  %.not96 = icmp eq i32 %66, 0
  br i1 %.not96, label %.thread, label %67

67:                                               ; preds = %64
  %68 = load i32, ptr %4, align 8
  %69 = load i32, ptr %8, align 8
  %70 = icmp sgt i32 %68, %69
  br i1 %70, label %.thread, label %71

71:                                               ; preds = %67
  %72 = tail call i32 @slice_from_s(ptr noundef nonnull %0, i32 noundef 4, ptr noundef nonnull @s_79) #2
  %73 = icmp sgt i32 %72, -1
  %spec.select = select i1 %73, i32 1, i32 %72
  br label %.thread

.thread:                                          ; preds = %18, %41, %71, %48, %67, %64, %61, %44
  %.4 = phi i32 [ %51, %48 ], [ %62, %61 ], [ 0, %44 ], [ 0, %64 ], [ 0, %67 ], [ %spec.select, %71 ], [ %21, %18 ], [ %42, %41 ]
  ret i32 %.4
}